target datalayout = "e-m:e-p270:32:32-p271:32:32-p272:64:64-i64:64-i128:128-f80:128-n8:16:32:64-S128"
target triple = "x86_64-pc-linux-gnu"

%struct.CommandTagBehavior = type { ptr, i8, i8, i8, i8 }

; Function Attrs: nounwind uwtable
define dso_local ptr @GetCommandTagNameAndLen(i32 noundef %0, ptr noundef %1) #0 {
  %3 = alloca i32, align 4
  %4 = alloca ptr, align 8
  store i32 %0, ptr %3, align 4
  store ptr %1, ptr %4, align 8
  %5 = load i32, ptr %3, align 4
  %6 = zext i32 %5 to i64
  %7 = getelementptr inbounds nuw [193 x %struct.CommandTagBehavior], ptr @tag_behavior, i64 0, i64 %6
  %8 = getelementptr inbounds nuw %struct.CommandTagBehavior, ptr %7, i32 0, i32 1
  %9 = load i8, ptr %8, align 8
  %10 = zext i8 %9 to i64
  %11 = load ptr, ptr %4, align 8
  store i64 %10, ptr %11, align 8
  %12 = load i32, ptr %3, align 4
  %13 = zext i32 %12 to i64
  %14 = getelementptr inbounds nuw [193 x %struct.CommandTagBehavior], ptr @tag_behavior, i64 0, i64 %13
  %15 = getelementptr inbounds nuw %struct.CommandTagBehavior, ptr %14, i32 0, i32 0
  %16 = load ptr, ptr %15, align 16
  ret ptr %16
}