; Function Attrs: mustprogress nofree norecurse nosync nounwind willreturn memory(argmem: write) uwtable
define dso_local ptr @GetCommandTagNameAndLen(i32 noundef %0, ptr noundef writeonly captures(none) initializes((0, 8)) %1) local_unnamed_addr #0 {
  %3 = zext i32 %0 to i64
  %4 = getelementptr inbounds nuw [193 x %struct.CommandTagBehavior], ptr @tag_behavior, i64 0, i64 %3
  %5 = getelementptr inbounds nuw i8, ptr %4, i64 8
  %6 = load i8, ptr %5, align 8
  %7 = zext i8 %6 to i64
  store i64 %7, ptr %1, align 8
  %8 = load ptr, ptr %4, align 16
  ret ptr %8
}